; Function Attrs: mustprogress nofree norecurse nosync nounwind willreturn memory(argmem: read) uwtable
define dso_local noundef zeroext i1 @_ZN5cmsys11SystemTools14FileIsFullPathEPKc(ptr noundef readonly captures(none) %0) local_unnamed_addr #16 align 2 {
  %2 = load i8, ptr %0, align 1, !tbaa !20
  %.not = icmp eq i8 %2, 0
  br i1 %.not, label %_ZN5cmsys17SystemToolsStatic14FileIsFullPathEPKcm.exit, label %3

3:                                                ; preds = %1
  %switch.selectcmp.case1.i = icmp eq i8 %2, 126
  %switch.selectcmp.case2.i = icmp eq i8 %2, 47
  %switch.selectcmp.i = or i1 %switch.selectcmp.case1.i, %switch.selectcmp.case2.i
  br label %_ZN5cmsys17SystemToolsStatic14FileIsFullPathEPKcm.exit

_ZN5cmsys17SystemToolsStatic14FileIsFullPathEPKcm.exit: ; preds = %1, %3
  %.0.i = phi i1 [ %switch.selectcmp.i, %3 ], [ false, %1 ]
  ret i1 %.0.i
}